target datalayout = "e-m:e-p270:32:32-p271:32:32-p272:64:64-i64:64-i128:128-f80:128-n8:16:32:64-S128"
target triple = "x86_64-pc-linux-gnu"

%struct.Vec_Wrd_t_ = type { i32, i32, ptr }

; Function Attrs: inlinehint nounwind uwtable
define internal i32 @Abc_Base2LogW(i64 noundef %0) #4 {
  %2 = alloca i32, align 4
  %3 = alloca i64, align 8
  %4 = alloca i32, align 4
  %5 = alloca i32, align 4
  store i64 %0, ptr %3, align 8, !tbaa !45
  call void @llvm.lifetime.start.p0(i64 4, ptr %4) #15
  %6 = load i64, ptr %3, align 8, !tbaa !45
  %7 = icmp ult i64 %6, 2
  br i1 %7, label %8, label %11

8:                                                ; preds = %1
  %9 = load i64, ptr %3, align 8, !tbaa !45
  %10 = trunc i64 %9 to i32
  store i32 %10, ptr %2, align 4
  store i32 1, ptr %5, align 4
  br label %25

11:                                               ; preds = %1
  store i32 0, ptr %4, align 4, !tbaa !10
  %12 = load i64, ptr %3, align 8, !tbaa !45
  %13 = add i64 %12, -1
  store i64 %13, ptr %3, align 8, !tbaa !45
  br label %14

14:                                               ; preds = %18, %11
  %15 = load i64, ptr %3, align 8, !tbaa !45
  %16 = icmp ne i64 %15, 0
  br i1 %16, label %17, label %23

17:                                               ; preds = %14
  br label %18

18:                                               ; preds = %17
  %19 = load i64, ptr %3, align 8, !tbaa !45
  %20 = lshr i64 %19, 1
  store i64 %20, ptr %3, align 8, !tbaa !45
  %21 = load i32, ptr %4, align 4, !tbaa !10
  %22 = add nsw i32 %21, 1
  store i32 %22, ptr %4, align 4, !tbaa !10
  br label %14, !llvm.loop !148

23:                                               ; preds = %14
  %24 = load i32, ptr %4, align 4, !tbaa !10
  store i32 %24, ptr %2, align 4
  store i32 1, ptr %5, align 4
  br label %25

25:                                               ; preds = %23, %8
  call void @llvm.lifetime.end.p0(i64 4, ptr %4) #15
  %26 = load i32, ptr %2, align 4
  ret i32 %26
}

; Function Attrs: inlinehint nounwind uwtable
define internal i64 @Vec_WrdEntry(ptr noundef %0, i32 noundef %1) #4 {
  %3 = alloca ptr, align 8
  %4 = alloca i32, align 4
  store ptr %0, ptr %3, align 8, !tbaa !3
  store i32 %1, ptr %4, align 4, !tbaa !10
  %5 = load ptr, ptr %3, align 8, !tbaa !3
  %6 = getelementptr inbounds nuw %struct.Vec_Wrd_t_, ptr %5, i32 0, i32 2
  %7 = load ptr, ptr %6, align 8, !tbaa !43
  %8 = load i32, ptr %4, align 4, !tbaa !10
  %9 = sext i32 %8 to i64
  %10 = getelementptr inbounds i64, ptr %7, i64 %9
  %11 = load i64, ptr %10, align 8, !tbaa !45
  ret i64 %11
}

; Function Attrs: inlinehint nounwind uwtable
define internal i32 @Vec_WrdSize(ptr noundef %0) #4 {
  %2 = alloca ptr, align 8
  store ptr %0, ptr %2, align 8, !tbaa !3
  %3 = load ptr, ptr %2, align 8, !tbaa !3
  %4 = getelementptr inbounds nuw %struct.Vec_Wrd_t_, ptr %3, i32 0, i32 1
  %5 = load i32, ptr %4, align 4, !tbaa !62
  ret i32 %5
}

; Function Attrs: inlinehint nounwind uwtable
define internal i64 @Vec_WrdEntryLast(ptr noundef %0) #4 {
  %2 = alloca ptr, align 8
  store ptr %0, ptr %2, align 8, !tbaa !3
  %3 = load ptr, ptr %2, align 8, !tbaa !3
  %4 = getelementptr inbounds nuw %struct.Vec_Wrd_t_, ptr %3, i32 0, i32 2
  %5 = load ptr, ptr %4, align 8, !tbaa !43
  %6 = load ptr, ptr %2, align 8, !tbaa !3
  %7 = getelementptr inbounds nuw %struct.Vec_Wrd_t_, ptr %6, i32 0, i32 1
  %8 = load i32, ptr %7, align 4, !tbaa !62
  %9 = sub nsw i32 %8, 1
  %10 = sext i32 %9 to i64
  %11 = getelementptr inbounds i64, ptr %5, i64 %10
  %12 = load i64, ptr %11, align 8, !tbaa !45
  ret i64 %12
}

; Function Attrs: nounwind uwtable
define i32 @Gia_ManGenNeuronBitWidth(ptr noundef %0, i32 noundef %1) #0 {
  %3 = alloca ptr, align 8
  %4 = alloca i32, align 4
  %5 = alloca i32, align 4
  %6 = alloca i32, align 4
  %7 = alloca i64, align 8
  %8 = alloca i64, align 8
  store ptr %0, ptr %3, align 8, !tbaa !3
  store i32 %1, ptr %4, align 4, !tbaa !10
  call void @llvm.lifetime.start.p0(i64 4, ptr %5) #15
  call void @llvm.lifetime.start.p0(i64 4, ptr %6) #15
  %9 = load i32, ptr %4, align 4, !tbaa !10
  %10 = shl i32 1, %9
  %11 = sub nsw i32 %10, 1
  store i32 %11, ptr %6, align 4, !tbaa !10
  call void @llvm.lifetime.start.p0(i64 8, ptr %7) #15
  call void @llvm.lifetime.start.p0(i64 8, ptr %8) #15
  %12 = load ptr, ptr %3, align 8, !tbaa !3
  %13 = call i64 @Vec_WrdEntryLast(ptr noundef %12)
  store i64 %13, ptr %8, align 8, !tbaa !45
  store i32 0, ptr %5, align 4, !tbaa !10
  br label %14

14:                                               ; preds = %33, %2
  %15 = load i32, ptr %5, align 4, !tbaa !10
  %16 = load ptr, ptr %3, align 8, !tbaa !3
  %17 = call i32 @Vec_WrdSize(ptr noundef %16)
  %18 = sub nsw i32 %17, 1
  %19 = icmp slt i32 %15, %18
  br i1 %19, label %20, label %24

20:                                               ; preds = %14
  %21 = load ptr, ptr %3, align 8, !tbaa !3
  %22 = load i32, ptr %5, align 4, !tbaa !10
  %23 = call i64 @Vec_WrdEntry(ptr noundef %21, i32 noundef %22)
  store i64 %23, ptr %7, align 8, !tbaa !45
  br label %24

24:                                               ; preds = %20, %14
  %25 = phi i1 [ false, %14 ], [ true, %20 ]
  br i1 %25, label %26, label %36

26:                                               ; preds = %24
  %27 = load i32, ptr %6, align 4, !tbaa !10
  %28 = sext i32 %27 to i64
  %29 = load i64, ptr %7, align 8, !tbaa !45
  %30 = mul i64 %28, %29
  %31 = load i64, ptr %8, align 8, !tbaa !45
  %32 = add i64 %31, %30
  store i64 %32, ptr %8, align 8, !tbaa !45
  br label %33

33:                                               ; preds = %26
  %34 = load i32, ptr %5, align 4, !tbaa !10
  %35 = add nsw i32 %34, 1
  store i32 %35, ptr %5, align 4, !tbaa !10
  br label %14, !llvm.loop !147

36:                                               ; preds = %24
  %37 = load i64, ptr %8, align 8, !tbaa !45
  %38 = call i32 @Abc_Base2LogW(i64 noundef %37)
  call void @llvm.lifetime.end.p0(i64 8, ptr %8) #15
  call void @llvm.lifetime.end.p0(i64 8, ptr %7) #15
  call void @llvm.lifetime.end.p0(i64 4, ptr %6) #15
  call void @llvm.lifetime.end.p0(i64 4, ptr %5) #15
  ret i32 %38
}