; Function Attrs: nofree norecurse nosync nounwind memory(read, inaccessiblemem: none) uwtable
define i32 @Gia_ManGenNeuronBitWidth(ptr noundef readonly captures(none) %0, i32 noundef %1) local_unnamed_addr #9 {
  %3 = getelementptr i8, ptr %0, i64 4
  %.val11 = load i32, ptr %3, align 4, !tbaa !50
  %4 = getelementptr i8, ptr %0, i64 8
  %.val12 = load ptr, ptr %4, align 8, !tbaa !13
  %5 = sext i32 %.val11 to i64
  %6 = getelementptr i64, ptr %.val12, i64 %5
  %7 = getelementptr i8, ptr %6, i64 -8
  %8 = load i64, ptr %7, align 8, !tbaa !16
  %9 = icmp sgt i32 %.val11, 1
  br i1 %9, label %.lr.ph, label %.critedge

.lr.ph:                                           ; preds = %2
  %10 = add nsw i32 %.val11, -1
  %notmask = shl nsw i32 -1, %1
  %11 = xor i32 %notmask, -1
  %12 = zext nneg i32 %11 to i64
  %wide.trip.count = zext nneg i32 %10 to i64
  br label %13

13:                                               ; preds = %.lr.ph, %13
  %indvars.iv = phi i64 [ 0, %.lr.ph ], [ %indvars.iv.next, %13 ]
  %.015 = phi i64 [ %8, %.lr.ph ], [ %17, %13 ]
  %14 = getelementptr inbounds nuw i64, ptr %.val12, i64 %indvars.iv
  %15 = load i64, ptr %14, align 8, !tbaa !16
  %16 = mul i64 %15, %12
  %17 = add i64 %16, %.015
  %indvars.iv.next = add nuw nsw i64 %indvars.iv, 1
  %exitcond.not = icmp eq i64 %indvars.iv.next, %wide.trip.count
  br i1 %exitcond.not, label %.critedge, label %13, !llvm.loop !136

.critedge:                                        ; preds = %13, %2
  %.0.lcssa = phi i64 [ %8, %2 ], [ %17, %13 ]
  %18 = icmp ult i64 %.0.lcssa, 2
  %19 = trunc nuw nsw i64 %.0.lcssa to i32
  %20 = add i64 %.0.lcssa, -1
  %21 = tail call range(i64 0, 65) i64 @llvm.ctlz.i64(i64 %20, i1 true)
  %22 = trunc nuw nsw i64 %21 to i32
  %23 = sub nuw nsw i32 64, %22
  %.09.i = select i1 %18, i32 %19, i32 %23
  ret i32 %.09.i
}